target datalayout = "e-m:e-p270:32:32-p271:32:32-p272:64:64-i64:64-i128:128-f80:128-n8:16:32:64-S128"
target triple = "x86_64-pc-linux-gnu"

; Function Attrs: nounwind uwtable
define hidden void @ScaleRowUp2_Bilinear_16_C(ptr noundef %0, i64 noundef %1, ptr noundef %2, i64 noundef %3, i32 noundef %4) #0 {
  %6 = alloca ptr, align 8
  %7 = alloca i64, align 8
  %8 = alloca ptr, align 8
  %9 = alloca i64, align 8
  %10 = alloca i32, align 4
  %11 = alloca ptr, align 8
  %12 = alloca ptr, align 8
  %13 = alloca ptr, align 8
  %14 = alloca ptr, align 8
  %15 = alloca i32, align 4
  %16 = alloca i32, align 4
  store ptr %0, ptr %6, align 8
  store i64 %1, ptr %7, align 8
  store ptr %2, ptr %8, align 8
  store i64 %3, ptr %9, align 8
  store i32 %4, ptr %10, align 4
  %17 = load ptr, ptr %6, align 8
  store ptr %17, ptr %11, align 8
  %18 = load ptr, ptr %6, align 8
  %19 = load i64, ptr %7, align 8
  %20 = getelementptr inbounds i16, ptr %18, i64 %19
  store ptr %20, ptr %12, align 8
  %21 = load ptr, ptr %8, align 8
  store ptr %21, ptr %13, align 8
  %22 = load ptr, ptr %8, align 8
  %23 = load i64, ptr %9, align 8
  %24 = getelementptr inbounds i16, ptr %22, i64 %23
  store ptr %24, ptr %14, align 8
  %25 = load i32, ptr %10, align 4
  %26 = ashr i32 %25, 1
  store i32 %26, ptr %15, align 4
  store i32 0, ptr %16, align 4
  br label %27

27:                                               ; preds = %208, %5
  %28 = load i32, ptr %16, align 4
  %29 = load i32, ptr %15, align 4
  %30 = icmp slt i32 %28, %29
  br i1 %30, label %31, label %211

31:                                               ; preds = %27
  %32 = load ptr, ptr %11, align 8
  %33 = load i32, ptr %16, align 4
  %34 = add nsw i32 %33, 0
  %35 = sext i32 %34 to i64
  %36 = getelementptr inbounds i16, ptr %32, i64 %35
  %37 = load i16, ptr %36, align 2
  %38 = zext i16 %37 to i32
  %39 = mul nsw i32 %38, 9
  %40 = load ptr, ptr %11, align 8
  %41 = load i32, ptr %16, align 4
  %42 = add nsw i32 %41, 1
  %43 = sext i32 %42 to i64
  %44 = getelementptr inbounds i16, ptr %40, i64 %43
  %45 = load i16, ptr %44, align 2
  %46 = zext i16 %45 to i32
  %47 = mul nsw i32 %46, 3
  %48 = add nsw i32 %39, %47
  %49 = load ptr, ptr %12, align 8
  %50 = load i32, ptr %16, align 4
  %51 = add nsw i32 %50, 0
  %52 = sext i32 %51 to i64
  %53 = getelementptr inbounds i16, ptr %49, i64 %52
  %54 = load i16, ptr %53, align 2
  %55 = zext i16 %54 to i32
  %56 = mul nsw i32 %55, 3
  %57 = add nsw i32 %48, %56
  %58 = load ptr, ptr %12, align 8
  %59 = load i32, ptr %16, align 4
  %60 = add nsw i32 %59, 1
  %61 = sext i32 %60 to i64
  %62 = getelementptr inbounds i16, ptr %58, i64 %61
  %63 = load i16, ptr %62, align 2
  %64 = zext i16 %63 to i32
  %65 = mul nsw i32 %64, 1
  %66 = add nsw i32 %57, %65
  %67 = add nsw i32 %66, 8
  %68 = ashr i32 %67, 4
  %69 = trunc i32 %68 to i16
  %70 = load ptr, ptr %13, align 8
  %71 = load i32, ptr %16, align 4
  %72 = mul nsw i32 2, %71
  %73 = add nsw i32 %72, 0
  %74 = sext i32 %73 to i64
  %75 = getelementptr inbounds i16, ptr %70, i64 %74
  store i16 %69, ptr %75, align 2
  %76 = load ptr, ptr %11, align 8
  %77 = load i32, ptr %16, align 4
  %78 = add nsw i32 %77, 0
  %79 = sext i32 %78 to i64
  %80 = getelementptr inbounds i16, ptr %76, i64 %79
  %81 = load i16, ptr %80, align 2
  %82 = zext i16 %81 to i32
  %83 = mul nsw i32 %82, 3
  %84 = load ptr, ptr %11, align 8
  %85 = load i32, ptr %16, align 4
  %86 = add nsw i32 %85, 1
  %87 = sext i32 %86 to i64
  %88 = getelementptr inbounds i16, ptr %84, i64 %87
  %89 = load i16, ptr %88, align 2
  %90 = zext i16 %89 to i32
  %91 = mul nsw i32 %90, 9
  %92 = add nsw i32 %83, %91
  %93 = load ptr, ptr %12, align 8
  %94 = load i32, ptr %16, align 4
  %95 = add nsw i32 %94, 0
  %96 = sext i32 %95 to i64
  %97 = getelementptr inbounds i16, ptr %93, i64 %96
  %98 = load i16, ptr %97, align 2
  %99 = zext i16 %98 to i32
  %100 = mul nsw i32 %99, 1
  %101 = add nsw i32 %92, %100
  %102 = load ptr, ptr %12, align 8
  %103 = load i32, ptr %16, align 4
  %104 = add nsw i32 %103, 1
  %105 = sext i32 %104 to i64
  %106 = getelementptr inbounds i16, ptr %102, i64 %105
  %107 = load i16, ptr %106, align 2
  %108 = zext i16 %107 to i32
  %109 = mul nsw i32 %108, 3
  %110 = add nsw i32 %101, %109
  %111 = add nsw i32 %110, 8
  %112 = ashr i32 %111, 4
  %113 = trunc i32 %112 to i16
  %114 = load ptr, ptr %13, align 8
  %115 = load i32, ptr %16, align 4
  %116 = mul nsw i32 2, %115
  %117 = add nsw i32 %116, 1
  %118 = sext i32 %117 to i64
  %119 = getelementptr inbounds i16, ptr %114, i64 %118
  store i16 %113, ptr %119, align 2
  %120 = load ptr, ptr %11, align 8
  %121 = load i32, ptr %16, align 4
  %122 = add nsw i32 %121, 0
  %123 = sext i32 %122 to i64
  %124 = getelementptr inbounds i16, ptr %120, i64 %123
  %125 = load i16, ptr %124, align 2
  %126 = zext i16 %125 to i32
  %127 = mul nsw i32 %126, 3
  %128 = load ptr, ptr %11, align 8
  %129 = load i32, ptr %16, align 4
  %130 = add nsw i32 %129, 1
  %131 = sext i32 %130 to i64
  %132 = getelementptr inbounds i16, ptr %128, i64 %131
  %133 = load i16, ptr %132, align 2
  %134 = zext i16 %133 to i32
  %135 = mul nsw i32 %134, 1
  %136 = add nsw i32 %127, %135
  %137 = load ptr, ptr %12, align 8
  %138 = load i32, ptr %16, align 4
  %139 = add nsw i32 %138, 0
  %140 = sext i32 %139 to i64
  %141 = getelementptr inbounds i16, ptr %137, i64 %140
  %142 = load i16, ptr %141, align 2
  %143 = zext i16 %142 to i32
  %144 = mul nsw i32 %143, 9
  %145 = add nsw i32 %136, %144
  %146 = load ptr, ptr %12, align 8
  %147 = load i32, ptr %16, align 4
  %148 = add nsw i32 %147, 1
  %149 = sext i32 %148 to i64
  %150 = getelementptr inbounds i16, ptr %146, i64 %149
  %151 = load i16, ptr %150, align 2
  %152 = zext i16 %151 to i32
  %153 = mul nsw i32 %152, 3
  %154 = add nsw i32 %145, %153
  %155 = add nsw i32 %154, 8
  %156 = ashr i32 %155, 4
  %157 = trunc i32 %156 to i16
  %158 = load ptr, ptr %14, align 8
  %159 = load i32, ptr %16, align 4
  %160 = mul nsw i32 2, %159
  %161 = add nsw i32 %160, 0
  %162 = sext i32 %161 to i64
  %163 = getelementptr inbounds i16, ptr %158, i64 %162
  store i16 %157, ptr %163, align 2
  %164 = load ptr, ptr %11, align 8
  %165 = load i32, ptr %16, align 4
  %166 = add nsw i32 %165, 0
  %167 = sext i32 %166 to i64
  %168 = getelementptr inbounds i16, ptr %164, i64 %167
  %169 = load i16, ptr %168, align 2
  %170 = zext i16 %169 to i32
  %171 = mul nsw i32 %170, 1
  %172 = load ptr, ptr %11, align 8
  %173 = load i32, ptr %16, align 4
  %174 = add nsw i32 %173, 1
  %175 = sext i32 %174 to i64
  %176 = getelementptr inbounds i16, ptr %172, i64 %175
  %177 = load i16, ptr %176, align 2
  %178 = zext i16 %177 to i32
  %179 = mul nsw i32 %178, 3
  %180 = add nsw i32 %171, %179
  %181 = load ptr, ptr %12, align 8
  %182 = load i32, ptr %16, align 4
  %183 = add nsw i32 %182, 0
  %184 = sext i32 %183 to i64
  %185 = getelementptr inbounds i16, ptr %181, i64 %184
  %186 = load i16, ptr %185, align 2
  %187 = zext i16 %186 to i32
  %188 = mul nsw i32 %187, 3
  %189 = add nsw i32 %180, %188
  %190 = load ptr, ptr %12, align 8
  %191 = load i32, ptr %16, align 4
  %192 = add nsw i32 %191, 1
  %193 = sext i32 %192 to i64
  %194 = getelementptr inbounds i16, ptr %190, i64 %193
  %195 = load i16, ptr %194, align 2
  %196 = zext i16 %195 to i32
  %197 = mul nsw i32 %196, 9
  %198 = add nsw i32 %189, %197
  %199 = add nsw i32 %198, 8
  %200 = ashr i32 %199, 4
  %201 = trunc i32 %200 to i16
  %202 = load ptr, ptr %14, align 8
  %203 = load i32, ptr %16, align 4
  %204 = mul nsw i32 2, %203
  %205 = add nsw i32 %204, 1
  %206 = sext i32 %205 to i64
  %207 = getelementptr inbounds i16, ptr %202, i64 %206
  store i16 %201, ptr %207, align 2
  br label %208

208:                                              ; preds = %31
  %209 = load i32, ptr %16, align 4
  %210 = add nsw i32 %209, 1
  store i32 %210, ptr %16, align 4
  br label %27, !llvm.loop !8

211:                                              ; preds = %27
  ret void
}