; Function Attrs: nofree norecurse nosync nounwind memory(argmem: readwrite) uwtable
define hidden void @ScaleRowUp2_Bilinear_16_C(ptr noundef readonly captures(none) %0, i64 noundef %1, ptr noundef writeonly captures(none) %2, i64 noundef %3, i32 noundef %4) local_unnamed_addr #0 {
  %6 = getelementptr inbounds i16, ptr %0, i64 %1
  %7 = getelementptr inbounds i16, ptr %2, i64 %3
  %8 = ashr i32 %4, 1
  %9 = icmp sgt i32 %8, 0
  br i1 %9, label %.lr.ph.preheader, label %._crit_edge

.lr.ph.preheader:                                 ; preds = %5
  %wide.trip.count = zext nneg i32 %8 to i64
  br label %.lr.ph

.lr.ph:                                           ; preds = %.lr.ph.preheader, %.lr.ph
  %indvars.iv = phi i64 [ 0, %.lr.ph.preheader ], [ %indvars.iv.next, %.lr.ph ]
  %10 = getelementptr inbounds nuw i16, ptr %0, i64 %indvars.iv
  %11 = load i16, ptr %10, align 2
  %12 = zext i16 %11 to i32
  %13 = mul nuw nsw i32 %12, 9
  %indvars.iv.next = add nuw nsw i64 %indvars.iv, 1
  %14 = getelementptr inbounds nuw i16, ptr %0, i64 %indvars.iv.next
  %15 = load i16, ptr %14, align 2
  %16 = zext i16 %15 to i32
  %17 = getelementptr inbounds nuw i16, ptr %6, i64 %indvars.iv
  %18 = load i16, ptr %17, align 2
  %19 = zext i16 %18 to i32
  %20 = getelementptr inbounds nuw i16, ptr %6, i64 %indvars.iv.next
  %21 = load i16, ptr %20, align 2
  %22 = zext i16 %21 to i32
  %reass.add = add nuw nsw i32 %19, %16
  %reass.mul = mul nuw nsw i32 %reass.add, 3
  %23 = add nuw nsw i32 %13, 8
  %24 = add nuw nsw i32 %23, %22
  %25 = add nuw nsw i32 %24, %reass.mul
  %26 = lshr i32 %25, 4
  %27 = trunc nuw i32 %26 to i16
  %28 = shl nuw nsw i64 %indvars.iv, 1
  %29 = getelementptr inbounds nuw i16, ptr %2, i64 %28
  store i16 %27, ptr %29, align 2
  %30 = load i16, ptr %10, align 2
  %31 = zext i16 %30 to i32
  %32 = load i16, ptr %14, align 2
  %33 = zext i16 %32 to i32
  %34 = mul nuw nsw i32 %33, 9
  %35 = load i16, ptr %17, align 2
  %36 = zext i16 %35 to i32
  %37 = load i16, ptr %20, align 2
  %38 = zext i16 %37 to i32
  %reass.add49 = add nuw nsw i32 %38, %31
  %reass.mul50 = mul nuw nsw i32 %reass.add49, 3
  %39 = add nuw nsw i32 %34, 8
  %40 = add nuw nsw i32 %39, %36
  %41 = add nuw nsw i32 %40, %reass.mul50
  %42 = lshr i32 %41, 4
  %43 = trunc nuw i32 %42 to i16
  %44 = or disjoint i64 %28, 1
  %45 = getelementptr inbounds nuw i16, ptr %2, i64 %44
  store i16 %43, ptr %45, align 2
  %46 = load i16, ptr %10, align 2
  %47 = zext i16 %46 to i32
  %48 = load i16, ptr %14, align 2
  %49 = zext i16 %48 to i32
  %50 = load i16, ptr %17, align 2
  %51 = zext i16 %50 to i32
  %52 = mul nuw nsw i32 %51, 9
  %53 = load i16, ptr %20, align 2
  %54 = zext i16 %53 to i32
  %reass.add51 = add nuw nsw i32 %54, %47
  %reass.mul52 = mul nuw nsw i32 %reass.add51, 3
  %55 = add nuw nsw i32 %49, 8
  %56 = add nuw nsw i32 %55, %52
  %57 = add nuw nsw i32 %56, %reass.mul52
  %58 = lshr i32 %57, 4
  %59 = trunc nuw i32 %58 to i16
  %60 = getelementptr inbounds nuw i16, ptr %7, i64 %28
  store i16 %59, ptr %60, align 2
  %61 = load i16, ptr %10, align 2
  %62 = zext i16 %61 to i32
  %63 = load i16, ptr %14, align 2
  %64 = zext i16 %63 to i32
  %65 = load i16, ptr %17, align 2
  %66 = zext i16 %65 to i32
  %67 = load i16, ptr %20, align 2
  %68 = zext i16 %67 to i32
  %69 = mul nuw nsw i32 %68, 9
  %reass.add53 = add nuw nsw i32 %66, %64
  %reass.mul54 = mul nuw nsw i32 %reass.add53, 3
  %70 = add nuw nsw i32 %62, 8
  %71 = add nuw nsw i32 %70, %69
  %72 = add nuw nsw i32 %71, %reass.mul54
  %73 = lshr i32 %72, 4
  %74 = trunc nuw i32 %73 to i16
  %75 = getelementptr inbounds nuw i16, ptr %7, i64 %44
  store i16 %74, ptr %75, align 2
  %exitcond.not = icmp eq i64 %indvars.iv.next, %wide.trip.count
  br i1 %exitcond.not, label %._crit_edge, label %.lr.ph, !llvm.loop !8

._crit_edge:                                      ; preds = %.lr.ph, %5
  ret void
}